	.file	"lprof.c"
	.text
.Ltext0:
	.p2align 4,,15
.globl lprof_close
	.type	lprof_close, @function
lprof_close:
.LFB59:
	.file 1 "lprof.c"
	.loc 1 73 0
	.cfi_startproc
	.loc 1 75 0
	movl	num_ctrs(%rip), %eax
	.loc 1 73 0
	pushq	%rbx
.LCFI0:
	.cfi_def_cfa_offset 16
	.loc 1 75 0
	testl	%eax, %eax
	js	.L4
	.cfi_offset 3, -16
	xorl	%ebx, %ebx
.LVL0:
	.p2align 4,,10
	.p2align 3
.L3:
.LBB12:
.LBB13:
	.file 2 "../include/linux/lprof.h"
	.loc 2 50 0
	xorl	%r8d, %r8d
	xorl	%ecx, %ecx
	movl	%ebx, %edx
	xorl	%esi, %esi
	xorl	%eax, %eax
	movl	$299, %edi
	call	syscall
.LBE13:
.LBE12:
	.loc 1 75 0
	addl	$1, %ebx
.LVL1:
	cmpl	%ebx, num_ctrs(%rip)
	jge	.L3
.L4:
	.loc 1 77 0
	popq	%rbx
.LVL2:
	ret
	.cfi_endproc
.LFE59:
	.size	lprof_close, .-lprof_close
	.section	.rodata.str1.1,"aMS",@progbits,1
.LC0:
	.string	"Error registering CS"
	.section	.rodata.str1.8,"aMS",@progbits,1
	.align 8
.LC1:
	.string	"Configuring counter %d as %04x\n"
	.section	.rodata.str1.1
.LC2:
	.string	"Error configuring counter"
	.text
	.p2align 4,,15
.globl lprof_init
	.type	lprof_init, @function
lprof_init:
.LFB58:
	.loc 1 40 0
	.cfi_startproc
.LVL3:
	pushq	%r14
.LCFI1:
	.cfi_def_cfa_offset 16
	.file 3 "/usr/include/bits/string3.h"
	.loc 3 86 0
	xorl	%eax, %eax
	.loc 1 40 0
	movl	%edi, %r14d
	.cfi_offset 14, -16
	pushq	%r13
.LCFI2:
	.cfi_def_cfa_offset 24
	pushq	%r12
.LCFI3:
	.cfi_def_cfa_offset 32
	pushq	%rbp
.LCFI4:
	.cfi_def_cfa_offset 40
	pushq	%rbx
.LCFI5:
	.cfi_def_cfa_offset 48
	subq	$80, %rsp
.LCFI6:
	.cfi_def_cfa_offset 128
	.loc 1 40 0
	movq	%rdx, 48(%rsp)
	.loc 3 86 0
	movl	$__lp_stats, %edx
	.loc 1 40 0
	movq	%rcx, 56(%rsp)
	.loc 3 86 0
	movq	%rdx, %rdi
.LVL4:
	movl	$11, %ecx
	.loc 1 40 0
	movq	%rsi, 40(%rsp)
	movq	%r8, 64(%rsp)
	movq	%r9, 72(%rsp)
.LBB34:
.LBB36:
.LBB38:
.LBB39:
	.loc 2 50 0
	xorl	%edx, %edx
.LBE39:
.LBE38:
.LBE36:
.LBE34:
	.loc 3 86 0
	rep stosq
.LBB42:
.LBB35:
	.loc 1 32 0
	movl	$__lp_sec1, %ecx
.LBB37:
.LBB40:
	.loc 2 50 0
	movl	$__lp_sec0, %r8d
	movl	$4, %esi
	subq	$__lp_sec0, %rcx
	movl	$299, %edi
	.cfi_offset 3, -48
	.cfi_offset 6, -40
	.cfi_offset 12, -32
	.cfi_offset 13, -24
	call	syscall
.LBE40:
.LBE37:
	.loc 1 35 0
	testl	%eax, %eax
	js	.L23
.L8:
.LBE35:
.LBE42:
.LBB43:
.LBB44:
	.loc 1 32 0
	movl	$__lp_sec2, %ecx
.LBB45:
.LBB46:
	.loc 2 50 0
	xorl	%eax, %eax
	movl	$__lp_sec1, %r8d
	subq	$__lp_sec1, %rcx
	movl	$1, %edx
	movl	$4, %esi
	movl	$299, %edi
	call	syscall
.LBE46:
.LBE45:
	.loc 1 35 0
	testl	%eax, %eax
	js	.L24
.L9:
.LBE44:
.LBE43:
.LBB48:
.LBB49:
	.loc 1 32 0
	movl	$__lp_sec3, %ecx
.LBB50:
.LBB51:
	.loc 2 50 0
	xorl	%eax, %eax
	movl	$__lp_sec2, %r8d
	subq	$__lp_sec2, %rcx
	movl	$2, %edx
	movl	$4, %esi
	movl	$299, %edi
	call	syscall
.LBE51:
.LBE50:
	.loc 1 35 0
	testl	%eax, %eax
	js	.L25
.L10:
.LBE49:
.LBE48:
.LBB53:
.LBB54:
.LBB55:
.LBB56:
	.loc 2 50 0
	movl	$__lp_sec_end, %ecx
	xorl	%eax, %eax
	movl	$__lp_sec3, %r8d
	subq	$__lp_sec3, %rcx
	movl	$3, %edx
	movl	$4, %esi
	movl	$299, %edi
	call	syscall
.LBE56:
.LBE55:
	.loc 1 35 0
	testl	%eax, %eax
	js	.L26
.L11:
.LBE54:
.LBE53:
	.loc 1 53 0
	leaq	128(%rsp), %rax
	.loc 1 54 0
	testl	%r14d, %r14d
	.loc 1 53 0
	movl	$8, (%rsp)
	movq	%rax, 8(%rsp)
	leaq	32(%rsp), %rax
	movq	%rax, 16(%rsp)
	.loc 1 54 0
	je	.L12
	movl	$1, %ebp
	movl	$1, %r13d
.LVL5:
	.p2align 4,,10
	.p2align 3
.L18:
	.loc 1 55 0
	movl	(%rsp), %edx
	cmpl	$47, %edx
	ja	.L13
	mov	%edx, %eax
	addq	16(%rsp), %rax
	addl	$8, %edx
	movl	%edx, (%rsp)
.L14:
	movzwl	(%rax), %r12d
.LVL6:
.LBB58:
.LBB59:
	.file 4 "/usr/include/bits/stdio2.h"
	.loc 4 105 0
	movl	%r13d, %edx
	movl	$.LC1, %esi
	movl	$1, %edi
	xorl	%eax, %eax
	movl	%r12d, %ecx
	mov	%r12d, %r12d
.LVL7:
	call	__printf_chk
	.p2align 4,,10
	.p2align 3
.L16:
.LBE59:
.LBE58:
.LBB60:
.LBB61:
	.loc 2 50 0
	xorl	%eax, %eax
	movl	$__lp_stats, %r8d
	movq	%r12, %rcx
	movl	%ebp, %edx
	movl	$1, %esi
	movl	$299, %edi
	call	syscall
.LBE61:
.LBE60:
	.loc 1 59 0
	testl	%eax, %eax
.LBB63:
.LBB62:
	.loc 2 50 0
	movl	%eax, %ebx
.LBE62:
.LBE63:
	.loc 1 59 0
	jns	.L15
	call	__errno_location
	cmpl	$16, (%rax)
	.p2align 4,,2
	je	.L16
	.loc 1 62 0
	movl	$.LC2, %edi
	call	perror
.L15:
	.loc 1 54 0
	addl	$1, %r13d
	cmpl	%r13d, %r14d
	movl	%r13d, %ebp
	jae	.L18
.L12:
	.loc 1 67 0
	movl	%r14d, num_ctrs(%rip)
	.loc 1 70 0
	movl	%ebx, %eax
	addq	$80, %rsp
	popq	%rbx
.LVL8:
	popq	%rbp
	popq	%r12
	popq	%r13
.LVL9:
	popq	%r14
.LVL10:
	ret
.LVL11:
	.p2align 4,,10
	.p2align 3
.L13:
	.loc 1 55 0
	movq	8(%rsp), %rax
	leaq	8(%rax), %rdx
	movq	%rdx, 8(%rsp)
	jmp	.L14
.LVL12:
.L23:
.LBB64:
.LBB41:
	.loc 1 36 0
	movl	$.LC0, %edi
	call	perror
	jmp	.L8
.L24:
.LBE41:
.LBE64:
.LBB65:
.LBB47:
	movl	$.LC0, %edi
	call	perror
	.p2align 4,,3
	jmp	.L9
.L25:
.LBE47:
.LBE65:
.LBB66:
.LBB52:
	movl	$.LC0, %edi
	call	perror
	.p2align 4,,3
	jmp	.L10
.L26:
.LBE52:
.LBE66:
.LBB67:
.LBB57:
	movl	$.LC0, %edi
	call	perror
	.p2align 4,,3
	jmp	.L11
.LBE57:
.LBE67:
	.cfi_endproc
.LFE58:
	.size	lprof_init, .-lprof_init
	.local	num_ctrs
	.comm	num_ctrs,4,4
	.comm	__lp_stats,88,32
.Letext0:
	.section	.note.GNU-stack,"",@progbits
